; Function Attrs: mustprogress nofree nounwind willreturn memory(readwrite, inaccessiblemem: write) uwtable
define hidden void @_ZN19OpenColorIO_v2_5dev16ComputeParamsFwdERKSt6vectorIdSaIdEERNS_14RendererParamsE(ptr noundef nonnull readonly align 8 captures(none) dereferenceable(24) %0, ptr noundef nonnull writeonly align 4 captures(none) dereferenceable(20) initializes((0, 20)) %1) local_unnamed_addr #3 {
  %.val = load ptr, ptr %0, align 8, !tbaa !3
  %3 = load double, ptr %.val, align 8, !tbaa !9
  %4 = fcmp olt double %3, 0x3FF000010C6F7A0B
  %.sroa.speculated.i = select i1 %4, double 0x3FF000010C6F7A0B, double %3
  %5 = fptrunc double %.sroa.speculated.i to float
  store float %5, ptr %1, align 4, !tbaa !11
  %6 = getelementptr inbounds nuw i8, ptr %.val, i64 8
  %7 = load double, ptr %6, align 8, !tbaa !9
  %8 = fcmp olt double %7, 0x3EB0C6F7A0B5ED8D
  %9 = select i1 %8, double 0x3EB0C6F7A0B5ED8D, double %7
  %10 = fadd double %9, 1.000000e+00
  %11 = fdiv double %9, %10
  %12 = fptrunc double %11 to float
  %13 = getelementptr inbounds nuw i8, ptr %1, i64 4
  store float %12, ptr %13, align 4, !tbaa !14
  %14 = fadd double %.sroa.speculated.i, -1.000000e+00
  %15 = fdiv double %9, %14
  %16 = fptrunc double %15 to float
  %17 = getelementptr inbounds nuw i8, ptr %1, i64 8
  store float %16, ptr %17, align 4, !tbaa !15
  %18 = fdiv double %14, %9
  %19 = fmul double %.sroa.speculated.i, %9
  %20 = fmul double %14, %10
  %21 = fdiv double %19, %20
  %22 = tail call double @pow(double noundef %21, double noundef %.sroa.speculated.i) #6, !tbaa !16
  %23 = fmul double %22, %18
  %24 = fptrunc double %23 to float
  %25 = getelementptr inbounds nuw i8, ptr %1, i64 12
  store float %24, ptr %25, align 4, !tbaa !18
  %26 = fdiv double 1.000000e+00, %10
  %27 = fptrunc double %26 to float
  %28 = getelementptr inbounds nuw i8, ptr %1, i64 16
  store float %27, ptr %28, align 4, !tbaa !19
  ret void
}